Certificate:
    Data:
        Version: 3 (0x2)
        Serial Number: 1 (0x1)
    Signature Algorithm: sha256WithRSAEncryption
        Issuer: CN=devcert
        Validity
            Not Before: May  5 14:14:09 2020 GMT
            Not After : Aug  8 14:14:09 2022 GMT
        Subject: CN=localhost
        Subject Public Key Info:
            Public Key Algorithm: rsaEncryption
                Public-Key: (2048 bit)
                Modulus:
                    00:9d:21:05:b1:f2:7e:dc:fd:72:88:b9:b1:d7:c8:
                    ab:1c:49:5d:3a:91:78:fa:4c:13:6e:a3:16:90:e5:
                    ba:85:72:9c:2c:03:6f:d6:e6:ea:4b:00:83:0f:97:
                    d0:d9:3b:81:c4:db:be:45:7b:b7:41:bc:60:73:8e:
                    65:96:52:4d:6a:51:ca:28:99:b8:66:03:a1:4f:06:
                    8e:d3:73:78:40:d3:00:c6:cb:6e:f3:57:ba:fe:87:
                    33:02:46:35:b0:65:fa:5b:57:0e:b2:5e:f9:67:fe:
                    1b:6b:1b:3b:32:f2:c8:d6:3e:c7:d9:84:ca:48:44:
                    10:23:2a:3c:2a:8f:c8:39:6d:f5:f4:58:c4:b8:f3:
                    66:8f:69:6a:fb:97:b1:df:63:9c:68:ee:ae:51:24:
                    7b:99:54:05:c8:76:3f:73:7e:6b:2c:b8:16:f9:86:
                    d1:eb:3d:d6:12:c0:c5:68:1b:b0:94:94:fe:ad:c3:
                    dd:66:50:02:92:17:4a:5d:b4:dd:d9:e2:29:a7:e9:
                    d0:69:38:33:8e:c6:2b:e9:f4:c4:5b:8d:66:73:5a:
                    c9:3c:29:f6:f2:d8:28:2d:3c:03:56:d5:b4:29:73:
                    03:8b:63:ae:a3:ec:66:6e:c6:a6:fd:b0:6d:43:a7:
                    dd:7b:76:ba:ec:ff:a7:02:1c:2a:bd:be:e3:19:37:
                    83:2d
                Exponent: 65537 (0x10001)
        X509v3 extensions:
            X509v3 Basic Constraints: critical
                CA:FALSE
            X509v3 Subject Key Identifier: 
                E6:E8:3E:C7:8C:46:32:76:2B:3D:23:4C:86:B1:B0:8A:C5:51:DB:CE
            X509v3 Authority Key Identifier: 
                keyid:ED:E4:0E:FD:74:07:A8:54:BF:7F:06:1E:76:F3:DA:29:6A:54:D7:8C
                DirName:/CN=devcert
                serial:BA:DB:C4:C6:BA:DC:B1:70

            X509v3 Key Usage: critical
                Digital Signature, Key Encipherment
            X509v3 Extended Key Usage: 
                TLS Web Server Authentication
            X509v3 Subject Alternative Name: 
                DNS:localhost, DNS:*.localhost
    Signature Algorithm: sha256WithRSAEncryption
         ca:32:70:5b:50:f3:22:8c:a4:7f:79:b6:a7:5d:94:b2:54:69:
         50:b0:48:12:d8:59:df:9b:af:d6:7e:60:a7:5c:81:6e:7b:c1:
         ae:17:b1:f8:ef:d7:48:5e:9f:d6:f8:33:2b:a5:91:ff:9a:15:
         f9:b8:fb:ac:7d:01:23:eb:40:e6:7d:dd:3e:45:02:9a:fa:0b:
         04:1b:c5:34:60:71:0f:00:ce:82:c2:7a:14:0e:b4:a0:7a:f1:
         45:99:7e:11:f6:30:c1:b8:55:ff:1c:e0:7e:4d:cc:7a:58:73:
         b8:99:0d:fe:38:01:cd:11:15:92:cf:4f:0c:4c:5a:df:d4:24:
         19:d9:ad:7a:df:c9:99:c7:b9:31:13:b2:9f:32:28:d1:30:e2:
         2c:75:c8:eb:19:9b:82:44:03:ae:73:32:56:03:8a:1d:b5:3b:
         96:33:de:41:97:5c:36:47:f5:3d:07:88:2f:fb:f0:11:e8:8b:
         af:35:4e:28:67:cb:a4:b9:16:24:b2:b7:1e:2a:a5:7f:5e:80:
         14:e6:67:44:c4:d7:0e:24:6c:de:7e:6f:6b:f1:d5:08:86:e5:
         b9:e7:a6:36:6d:e5:d8:5e:e1:10:24:1f:55:0f:95:cd:7f:43:
         5e:ad:97:44:ab:66:33:8f:43:4a:69:4a:8c:fc:4e:1f:07:ff:
         f1:bf:19:1b
-----BEGIN CERTIFICATE-----
MIIDXjCCAkagAwIBAgIBATANBgkqhkiG9w0BAQsFADASMRAwDgYDVQQDDAdkZXZj
ZXJ0MB4XDTIwMDUwNTE0MTQwOVoXDTIyMDgwODE0MTQwOVowFDESMBAGA1UEAwwJ
bG9jYWxob3N0MIIBIjANBgkqhkiG9w0BAQEFAAOCAQ8AMIIBCgKCAQEAnSEFsfJ+
3P1yiLmx18irHEldOpF4+kwTbqMWkOW6hXKcLANv1ubqSwCDD5fQ2TuBxNu+RXu3
Qbxgc45lllJNalHKKJm4ZgOhTwaO03N4QNMAxstu81e6/oczAkY1sGX6W1cOsl75
Z/4baxs7MvLI1j7H2YTKSEQQIyo8Ko/IOW319FjEuPNmj2lq+5ex32OcaO6uUSR7
mVQFyHY/c35rLLgW+YbR6z3WEsDFaBuwlJT+rcPdZlACkhdKXbTd2eIpp+nQaTgz
jsYr6fTEW41mc1rJPCn28tgoLTwDVtW0KXMDi2Ouo+xmbsam/bBtQ6fde3a67P+n
Ahwqvb7jGTeDLQIDAQABo4G8MIG5MAwGA1UdEwEB/wQCMAAwHQYDVR0OBBYEFObo
PseMRjJ2Kz0jTIaxsIrFUdvOMEIGA1UdIwQ7MDmAFO3kDv10B6hUv38GHnbz2ilq
VNeMoRakFDASMRAwDgYDVQQDDAdkZXZjZXJ0ggkAutvExrrcsXAwDgYDVR0PAQH/
BAQDAgWgMBMGA1UdJQQMMAoGCCsGAQUFBwMBMCEGA1UdEQQaMBiCCWxvY2FsaG9z
dIILKi5sb2NhbGhvc3QwDQYJKoZIhvcNAQELBQADggEBAMoycFtQ8yKMpH95tqdd
lLJUaVCwSBLYWd+br9Z+YKdcgW57wa4Xsfjv10hen9b4Myulkf+aFfm4+6x9ASPr
QOZ93T5FApr6CwQbxTRgcQ8AzoLCehQOtKB68UWZfhH2MMG4Vf8c4H5NzHpYc7iZ
Df44Ac0RFZLPTwxMWt/UJBnZrXrfyZnHuTETsp8yKNEw4ix1yOsZm4JEA65zMlYD
ih21O5Yz3kGXXDZH9T0HiC/78BHoi681Tihny6S5FiSytx4qpX9egBTmZ0TE1w4k
bN5+b2vx1QiG5bnnpjZt5dhe4RAkH1UPlc1/Q16tl0SrZjOPQ0ppSoz8Th8H//G/
GRs=
-----END CERTIFICATE-----
